#include <math.h>
#include <stdio.h>
#include <stdlib.h>
#include <string.h>


int main()
{
	int m,n;       //?? ???????? ??
	int i,j,k,p,q;       //????
	int b[9][9][5]={0};   //?? ????0 b???? b[i][j][k]???i??j??k?
	scanf("%d %d", &m, &n);
	b[4][4][0]=m;
	//printf("%d", b[8][8][3]);
	
	for(i=1;i<=n;i++)   //??????
	{
		for(j=1;j<8;j++)
		{
			for(k=1;k<8;k++)
			{
				while(b[j][k][i-1]!=0)
				{
					//printf("xunhuan");
					b[j][k+1][i]+=b[j][k][i-1];
					b[j][k-1][i]+=b[j][k][i-1];
					b[j-1][k-1][i]+=b[j][k][i-1];
					b[j-1][k][i]+=b[j][k][i-1];
					b[j-1][k+1][i]+=b[j][k][i-1];
					b[j+1][k-1][i]+=b[j][k][i-1];
					b[j+1][k][i]+=b[j][k][i-1];
					b[j+1][k+1][i]+=b[j][k][i-1];
					b[j][k][i]+=2*b[j][k][i-1];
					break;
				}
			}
		}
	}
	for(p=0;p<=8;p++)
	{
		for(q=0;q<8;q++)
			printf("%d ", b[p][q][n]);
		printf("%d\n", b[p][8][n]);
	}

	return 0;
}