; ModuleID = '48/2.c'
source_filename = "48/2.c"
target datalayout = "e-m:e-p270:32:32-p271:32:32-p272:64:64-i64:64-f80:128-n8:16:32:64-S128"
target triple = "x86_64-pc-linux-gnu"

@.str = private unnamed_addr constant [6 x i8] c"%d %d\00", align 1
@.str.1 = private unnamed_addr constant [4 x i8] c"%d \00", align 1
@.str.2 = private unnamed_addr constant [4 x i8] c"%d\0A\00", align 1

; Function Attrs: noinline nounwind uwtable
define dso_local i32 @main() #0 {
  %1 = alloca i32, align 4
  %2 = alloca i32, align 4
  %3 = alloca i32, align 4
  %4 = alloca i32, align 4
  %5 = alloca i32, align 4
  %6 = alloca i32, align 4
  %7 = alloca i32, align 4
  %8 = alloca i32, align 4
  %9 = alloca [9 x [9 x [5 x i32]]], align 16
  store i32 0, i32* %1, align 4
  %10 = bitcast [9 x [9 x [5 x i32]]]* %9 to i8*
  call void @llvm.memset.p0i8.i64(i8* align 16 %10, i8 0, i64 1620, i1 false)
  %11 = call i32 (i8*, ...) @__isoc99_scanf(i8* getelementptr inbounds ([6 x i8], [6 x i8]* @.str, i64 0, i64 0), i32* %2, i32* %3)
  %12 = load i32, i32* %2, align 4
  %13 = getelementptr inbounds [9 x [9 x [5 x i32]]], [9 x [9 x [5 x i32]]]* %9, i64 0, i64 4
  %14 = getelementptr inbounds [9 x [5 x i32]], [9 x [5 x i32]]* %13, i64 0, i64 4
  %15 = getelementptr inbounds [5 x i32], [5 x i32]* %14, i64 0, i64 0
  store i32 %12, i32* %15, align 16
  store i32 1, i32* %4, align 4
  br label %16

16:                                               ; preds = %263, %0
  %17 = load i32, i32* %4, align 4
  %18 = load i32, i32* %3, align 4
  %19 = icmp sle i32 %17, %18
  br i1 %19, label %20, label %266

20:                                               ; preds = %16
  store i32 1, i32* %5, align 4
  br label %21

21:                                               ; preds = %259, %20
  %22 = load i32, i32* %5, align 4
  %23 = icmp slt i32 %22, 8
  br i1 %23, label %24, label %262

24:                                               ; preds = %21
  store i32 1, i32* %6, align 4
  br label %25

25:                                               ; preds = %255, %24
  %26 = load i32, i32* %6, align 4
  %27 = icmp slt i32 %26, 8
  br i1 %27, label %28, label %258

28:                                               ; preds = %25
  br label %29

29:                                               ; preds = %28
  %30 = load i32, i32* %5, align 4
  %31 = sext i32 %30 to i64
  %32 = getelementptr inbounds [9 x [9 x [5 x i32]]], [9 x [9 x [5 x i32]]]* %9, i64 0, i64 %31
  %33 = load i32, i32* %6, align 4
  %34 = sext i32 %33 to i64
  %35 = getelementptr inbounds [9 x [5 x i32]], [9 x [5 x i32]]* %32, i64 0, i64 %34
  %36 = load i32, i32* %4, align 4
  %37 = sub nsw i32 %36, 1
  %38 = sext i32 %37 to i64
  %39 = getelementptr inbounds [5 x i32], [5 x i32]* %35, i64 0, i64 %38
  %40 = load i32, i32* %39, align 4
  %41 = icmp ne i32 %40, 0
  br i1 %41, label %42, label %254

42:                                               ; preds = %29
  %43 = load i32, i32* %5, align 4
  %44 = sext i32 %43 to i64
  %45 = getelementptr inbounds [9 x [9 x [5 x i32]]], [9 x [9 x [5 x i32]]]* %9, i64 0, i64 %44
  %46 = load i32, i32* %6, align 4
  %47 = sext i32 %46 to i64
  %48 = getelementptr inbounds [9 x [5 x i32]], [9 x [5 x i32]]* %45, i64 0, i64 %47
  %49 = load i32, i32* %4, align 4
  %50 = sub nsw i32 %49, 1
  %51 = sext i32 %50 to i64
  %52 = getelementptr inbounds [5 x i32], [5 x i32]* %48, i64 0, i64 %51
  %53 = load i32, i32* %52, align 4
  %54 = load i32, i32* %5, align 4
  %55 = sext i32 %54 to i64
  %56 = getelementptr inbounds [9 x [9 x [5 x i32]]], [9 x [9 x [5 x i32]]]* %9, i64 0, i64 %55
  %57 = load i32, i32* %6, align 4
  %58 = add nsw i32 %57, 1
  %59 = sext i32 %58 to i64
  %60 = getelementptr inbounds [9 x [5 x i32]], [9 x [5 x i32]]* %56, i64 0, i64 %59
  %61 = load i32, i32* %4, align 4
  %62 = sext i32 %61 to i64
  %63 = getelementptr inbounds [5 x i32], [5 x i32]* %60, i64 0, i64 %62
  %64 = load i32, i32* %63, align 4
  %65 = add nsw i32 %64, %53
  store i32 %65, i32* %63, align 4
  %66 = load i32, i32* %5, align 4
  %67 = sext i32 %66 to i64
  %68 = getelementptr inbounds [9 x [9 x [5 x i32]]], [9 x [9 x [5 x i32]]]* %9, i64 0, i64 %67
  %69 = load i32, i32* %6, align 4
  %70 = sext i32 %69 to i64
  %71 = getelementptr inbounds [9 x [5 x i32]], [9 x [5 x i32]]* %68, i64 0, i64 %70
  %72 = load i32, i32* %4, align 4
  %73 = sub nsw i32 %72, 1
  %74 = sext i32 %73 to i64
  %75 = getelementptr inbounds [5 x i32], [5 x i32]* %71, i64 0, i64 %74
  %76 = load i32, i32* %75, align 4
  %77 = load i32, i32* %5, align 4
  %78 = sext i32 %77 to i64
  %79 = getelementptr inbounds [9 x [9 x [5 x i32]]], [9 x [9 x [5 x i32]]]* %9, i64 0, i64 %78
  %80 = load i32, i32* %6, align 4
  %81 = sub nsw i32 %80, 1
  %82 = sext i32 %81 to i64
  %83 = getelementptr inbounds [9 x [5 x i32]], [9 x [5 x i32]]* %79, i64 0, i64 %82
  %84 = load i32, i32* %4, align 4
  %85 = sext i32 %84 to i64
  %86 = getelementptr inbounds [5 x i32], [5 x i32]* %83, i64 0, i64 %85
  %87 = load i32, i32* %86, align 4
  %88 = add nsw i32 %87, %76
  store i32 %88, i32* %86, align 4
  %89 = load i32, i32* %5, align 4
  %90 = sext i32 %89 to i64
  %91 = getelementptr inbounds [9 x [9 x [5 x i32]]], [9 x [9 x [5 x i32]]]* %9, i64 0, i64 %90
  %92 = load i32, i32* %6, align 4
  %93 = sext i32 %92 to i64
  %94 = getelementptr inbounds [9 x [5 x i32]], [9 x [5 x i32]]* %91, i64 0, i64 %93
  %95 = load i32, i32* %4, align 4
  %96 = sub nsw i32 %95, 1
  %97 = sext i32 %96 to i64
  %98 = getelementptr inbounds [5 x i32], [5 x i32]* %94, i64 0, i64 %97
  %99 = load i32, i32* %98, align 4
  %100 = load i32, i32* %5, align 4
  %101 = sub nsw i32 %100, 1
  %102 = sext i32 %101 to i64
  %103 = getelementptr inbounds [9 x [9 x [5 x i32]]], [9 x [9 x [5 x i32]]]* %9, i64 0, i64 %102
  %104 = load i32, i32* %6, align 4
  %105 = sub nsw i32 %104, 1
  %106 = sext i32 %105 to i64
  %107 = getelementptr inbounds [9 x [5 x i32]], [9 x [5 x i32]]* %103, i64 0, i64 %106
  %108 = load i32, i32* %4, align 4
  %109 = sext i32 %108 to i64
  %110 = getelementptr inbounds [5 x i32], [5 x i32]* %107, i64 0, i64 %109
  %111 = load i32, i32* %110, align 4
  %112 = add nsw i32 %111, %99
  store i32 %112, i32* %110, align 4
  %113 = load i32, i32* %5, align 4
  %114 = sext i32 %113 to i64
  %115 = getelementptr inbounds [9 x [9 x [5 x i32]]], [9 x [9 x [5 x i32]]]* %9, i64 0, i64 %114
  %116 = load i32, i32* %6, align 4
  %117 = sext i32 %116 to i64
  %118 = getelementptr inbounds [9 x [5 x i32]], [9 x [5 x i32]]* %115, i64 0, i64 %117
  %119 = load i32, i32* %4, align 4
  %120 = sub nsw i32 %119, 1
  %121 = sext i32 %120 to i64
  %122 = getelementptr inbounds [5 x i32], [5 x i32]* %118, i64 0, i64 %121
  %123 = load i32, i32* %122, align 4
  %124 = load i32, i32* %5, align 4
  %125 = sub nsw i32 %124, 1
  %126 = sext i32 %125 to i64
  %127 = getelementptr inbounds [9 x [9 x [5 x i32]]], [9 x [9 x [5 x i32]]]* %9, i64 0, i64 %126
  %128 = load i32, i32* %6, align 4
  %129 = sext i32 %128 to i64
  %130 = getelementptr inbounds [9 x [5 x i32]], [9 x [5 x i32]]* %127, i64 0, i64 %129
  %131 = load i32, i32* %4, align 4
  %132 = sext i32 %131 to i64
  %133 = getelementptr inbounds [5 x i32], [5 x i32]* %130, i64 0, i64 %132
  %134 = load i32, i32* %133, align 4
  %135 = add nsw i32 %134, %123
  store i32 %135, i32* %133, align 4
  %136 = load i32, i32* %5, align 4
  %137 = sext i32 %136 to i64
  %138 = getelementptr inbounds [9 x [9 x [5 x i32]]], [9 x [9 x [5 x i32]]]* %9, i64 0, i64 %137
  %139 = load i32, i32* %6, align 4
  %140 = sext i32 %139 to i64
  %141 = getelementptr inbounds [9 x [5 x i32]], [9 x [5 x i32]]* %138, i64 0, i64 %140
  %142 = load i32, i32* %4, align 4
  %143 = sub nsw i32 %142, 1
  %144 = sext i32 %143 to i64
  %145 = getelementptr inbounds [5 x i32], [5 x i32]* %141, i64 0, i64 %144
  %146 = load i32, i32* %145, align 4
  %147 = load i32, i32* %5, align 4
  %148 = sub nsw i32 %147, 1
  %149 = sext i32 %148 to i64
  %150 = getelementptr inbounds [9 x [9 x [5 x i32]]], [9 x [9 x [5 x i32]]]* %9, i64 0, i64 %149
  %151 = load i32, i32* %6, align 4
  %152 = add nsw i32 %151, 1
  %153 = sext i32 %152 to i64
  %154 = getelementptr inbounds [9 x [5 x i32]], [9 x [5 x i32]]* %150, i64 0, i64 %153
  %155 = load i32, i32* %4, align 4
  %156 = sext i32 %155 to i64
  %157 = getelementptr inbounds [5 x i32], [5 x i32]* %154, i64 0, i64 %156
  %158 = load i32, i32* %157, align 4
  %159 = add nsw i32 %158, %146
  store i32 %159, i32* %157, align 4
  %160 = load i32, i32* %5, align 4
  %161 = sext i32 %160 to i64
  %162 = getelementptr inbounds [9 x [9 x [5 x i32]]], [9 x [9 x [5 x i32]]]* %9, i64 0, i64 %161
  %163 = load i32, i32* %6, align 4
  %164 = sext i32 %163 to i64
  %165 = getelementptr inbounds [9 x [5 x i32]], [9 x [5 x i32]]* %162, i64 0, i64 %164
  %166 = load i32, i32* %4, align 4
  %167 = sub nsw i32 %166, 1
  %168 = sext i32 %167 to i64
  %169 = getelementptr inbounds [5 x i32], [5 x i32]* %165, i64 0, i64 %168
  %170 = load i32, i32* %169, align 4
  %171 = load i32, i32* %5, align 4
  %172 = add nsw i32 %171, 1
  %173 = sext i32 %172 to i64
  %174 = getelementptr inbounds [9 x [9 x [5 x i32]]], [9 x [9 x [5 x i32]]]* %9, i64 0, i64 %173
  %175 = load i32, i32* %6, align 4
  %176 = sub nsw i32 %175, 1
  %177 = sext i32 %176 to i64
  %178 = getelementptr inbounds [9 x [5 x i32]], [9 x [5 x i32]]* %174, i64 0, i64 %177
  %179 = load i32, i32* %4, align 4
  %180 = sext i32 %179 to i64
  %181 = getelementptr inbounds [5 x i32], [5 x i32]* %178, i64 0, i64 %180
  %182 = load i32, i32* %181, align 4
  %183 = add nsw i32 %182, %170
  store i32 %183, i32* %181, align 4
  %184 = load i32, i32* %5, align 4
  %185 = sext i32 %184 to i64
  %186 = getelementptr inbounds [9 x [9 x [5 x i32]]], [9 x [9 x [5 x i32]]]* %9, i64 0, i64 %185
  %187 = load i32, i32* %6, align 4
  %188 = sext i32 %187 to i64
  %189 = getelementptr inbounds [9 x [5 x i32]], [9 x [5 x i32]]* %186, i64 0, i64 %188
  %190 = load i32, i32* %4, align 4
  %191 = sub nsw i32 %190, 1
  %192 = sext i32 %191 to i64
  %193 = getelementptr inbounds [5 x i32], [5 x i32]* %189, i64 0, i64 %192
  %194 = load i32, i32* %193, align 4
  %195 = load i32, i32* %5, align 4
  %196 = add nsw i32 %195, 1
  %197 = sext i32 %196 to i64
  %198 = getelementptr inbounds [9 x [9 x [5 x i32]]], [9 x [9 x [5 x i32]]]* %9, i64 0, i64 %197
  %199 = load i32, i32* %6, align 4
  %200 = sext i32 %199 to i64
  %201 = getelementptr inbounds [9 x [5 x i32]], [9 x [5 x i32]]* %198, i64 0, i64 %200
  %202 = load i32, i32* %4, align 4
  %203 = sext i32 %202 to i64
  %204 = getelementptr inbounds [5 x i32], [5 x i32]* %201, i64 0, i64 %203
  %205 = load i32, i32* %204, align 4
  %206 = add nsw i32 %205, %194
  store i32 %206, i32* %204, align 4
  %207 = load i32, i32* %5, align 4
  %208 = sext i32 %207 to i64
  %209 = getelementptr inbounds [9 x [9 x [5 x i32]]], [9 x [9 x [5 x i32]]]* %9, i64 0, i64 %208
  %210 = load i32, i32* %6, align 4
  %211 = sext i32 %210 to i64
  %212 = getelementptr inbounds [9 x [5 x i32]], [9 x [5 x i32]]* %209, i64 0, i64 %211
  %213 = load i32, i32* %4, align 4
  %214 = sub nsw i32 %213, 1
  %215 = sext i32 %214 to i64
  %216 = getelementptr inbounds [5 x i32], [5 x i32]* %212, i64 0, i64 %215
  %217 = load i32, i32* %216, align 4
  %218 = load i32, i32* %5, align 4
  %219 = add nsw i32 %218, 1
  %220 = sext i32 %219 to i64
  %221 = getelementptr inbounds [9 x [9 x [5 x i32]]], [9 x [9 x [5 x i32]]]* %9, i64 0, i64 %220
  %222 = load i32, i32* %6, align 4
  %223 = add nsw i32 %222, 1
  %224 = sext i32 %223 to i64
  %225 = getelementptr inbounds [9 x [5 x i32]], [9 x [5 x i32]]* %221, i64 0, i64 %224
  %226 = load i32, i32* %4, align 4
  %227 = sext i32 %226 to i64
  %228 = getelementptr inbounds [5 x i32], [5 x i32]* %225, i64 0, i64 %227
  %229 = load i32, i32* %228, align 4
  %230 = add nsw i32 %229, %217
  store i32 %230, i32* %228, align 4
  %231 = load i32, i32* %5, align 4
  %232 = sext i32 %231 to i64
  %233 = getelementptr inbounds [9 x [9 x [5 x i32]]], [9 x [9 x [5 x i32]]]* %9, i64 0, i64 %232
  %234 = load i32, i32* %6, align 4
  %235 = sext i32 %234 to i64
  %236 = getelementptr inbounds [9 x [5 x i32]], [9 x [5 x i32]]* %233, i64 0, i64 %235
  %237 = load i32, i32* %4, align 4
  %238 = sub nsw i32 %237, 1
  %239 = sext i32 %238 to i64
  %240 = getelementptr inbounds [5 x i32], [5 x i32]* %236, i64 0, i64 %239
  %241 = load i32, i32* %240, align 4
  %242 = mul nsw i32 2, %241
  %243 = load i32, i32* %5, align 4
  %244 = sext i32 %243 to i64
  %245 = getelementptr inbounds [9 x [9 x [5 x i32]]], [9 x [9 x [5 x i32]]]* %9, i64 0, i64 %244
  %246 = load i32, i32* %6, align 4
  %247 = sext i32 %246 to i64
  %248 = getelementptr inbounds [9 x [5 x i32]], [9 x [5 x i32]]* %245, i64 0, i64 %247
  %249 = load i32, i32* %4, align 4
  %250 = sext i32 %249 to i64
  %251 = getelementptr inbounds [5 x i32], [5 x i32]* %248, i64 0, i64 %250
  %252 = load i32, i32* %251, align 4
  %253 = add nsw i32 %252, %242
  store i32 %253, i32* %251, align 4
  br label %254

254:                                              ; preds = %42, %29
  br label %255

255:                                              ; preds = %254
  %256 = load i32, i32* %6, align 4
  %257 = add nsw i32 %256, 1
  store i32 %257, i32* %6, align 4
  br label %25

258:                                              ; preds = %25
  br label %259

259:                                              ; preds = %258
  %260 = load i32, i32* %5, align 4
  %261 = add nsw i32 %260, 1
  store i32 %261, i32* %5, align 4
  br label %21

262:                                              ; preds = %21
  br label %263

263:                                              ; preds = %262
  %264 = load i32, i32* %4, align 4
  %265 = add nsw i32 %264, 1
  store i32 %265, i32* %4, align 4
  br label %16

266:                                              ; preds = %16
  store i32 0, i32* %7, align 4
  br label %267

267:                                              ; preds = %299, %266
  %268 = load i32, i32* %7, align 4
  %269 = icmp sle i32 %268, 8
  br i1 %269, label %270, label %302

270:                                              ; preds = %267
  store i32 0, i32* %8, align 4
  br label %271

271:                                              ; preds = %286, %270
  %272 = load i32, i32* %8, align 4
  %273 = icmp slt i32 %272, 8
  br i1 %273, label %274, label %289

274:                                              ; preds = %271
  %275 = load i32, i32* %7, align 4
  %276 = sext i32 %275 to i64
  %277 = getelementptr inbounds [9 x [9 x [5 x i32]]], [9 x [9 x [5 x i32]]]* %9, i64 0, i64 %276
  %278 = load i32, i32* %8, align 4
  %279 = sext i32 %278 to i64
  %280 = getelementptr inbounds [9 x [5 x i32]], [9 x [5 x i32]]* %277, i64 0, i64 %279
  %281 = load i32, i32* %3, align 4
  %282 = sext i32 %281 to i64
  %283 = getelementptr inbounds [5 x i32], [5 x i32]* %280, i64 0, i64 %282
  %284 = load i32, i32* %283, align 4
  %285 = call i32 (i8*, ...) @printf(i8* getelementptr inbounds ([4 x i8], [4 x i8]* @.str.1, i64 0, i64 0), i32 %284)
  br label %286

286:                                              ; preds = %274
  %287 = load i32, i32* %8, align 4
  %288 = add nsw i32 %287, 1
  store i32 %288, i32* %8, align 4
  br label %271

289:                                              ; preds = %271
  %290 = load i32, i32* %7, align 4
  %291 = sext i32 %290 to i64
  %292 = getelementptr inbounds [9 x [9 x [5 x i32]]], [9 x [9 x [5 x i32]]]* %9, i64 0, i64 %291
  %293 = getelementptr inbounds [9 x [5 x i32]], [9 x [5 x i32]]* %292, i64 0, i64 8
  %294 = load i32, i32* %3, align 4
  %295 = sext i32 %294 to i64
  %296 = getelementptr inbounds [5 x i32], [5 x i32]* %293, i64 0, i64 %295
  %297 = load i32, i32* %296, align 4
  %298 = call i32 (i8*, ...) @printf(i8* getelementptr inbounds ([4 x i8], [4 x i8]* @.str.2, i64 0, i64 0), i32 %297)
  br label %299

299:                                              ; preds = %289
  %300 = load i32, i32* %7, align 4
  %301 = add nsw i32 %300, 1
  store i32 %301, i32* %7, align 4
  br label %267

302:                                              ; preds = %267
  ret i32 0
}

; Function Attrs: argmemonly nounwind willreturn
declare void @llvm.memset.p0i8.i64(i8* nocapture writeonly, i8, i64, i1 immarg) #1

declare dso_local i32 @__isoc99_scanf(i8*, ...) #2

declare dso_local i32 @printf(i8*, ...) #2


!llvm.module.flags = !{!0}
!llvm.ident = !{!1}

!0 = !{i32 1, !"wchar_size", i32 4}
!1 = !{!"clang version 10.0.0-4ubuntu1 "}
